; Function Attrs: mustprogress nounwind uwtable
define internal void @_ZN2cv6detail10VectorRefTIN6custom12_GLOBAL__N_14FaceEED2Ev(ptr noundef nonnull align 8 dereferenceable(56) %0) unnamed_addr #5 align 2 personality ptr @__gxx_personality_v0 {
  %2 = getelementptr inbounds nuw i8, ptr %0, i64 24
  %3 = load i64, ptr %2, align 8, !tbaa !511
  %4 = getelementptr inbounds nuw [4 x ptr], ptr @constinit.63, i64 0, i64 %3
  %5 = load ptr, ptr %4, align 8, !tbaa !89
  %6 = getelementptr inbounds nuw i8, ptr %0, i64 32
  invoke void %5(ptr noundef nonnull %6)
          to label %_ZN2cv4util7variantIJNS0_9monostateEPKSt6vectorIN6custom12_GLOBAL__N_14FaceESaIS6_EEPS8_S8_EED2Ev.exit unwind label %7

7:                                                ; preds = %1
  %8 = landingpad { ptr, i32 }
          catch ptr null
  %9 = extractvalue { ptr, i32 } %8, 0
  tail call void @__clang_call_terminate(ptr %9) #39
  unreachable

_ZN2cv4util7variantIJNS0_9monostateEPKSt6vectorIN6custom12_GLOBAL__N_14FaceESaIS6_EEPS8_S8_EED2Ev.exit: ; preds = %1
  ret void
}